target datalayout = "e-m:e-p270:32:32-p271:32:32-p272:64:64-i64:64-i128:128-f80:128-n8:16:32:64-S128"
target triple = "x86_64-pc-linux-gnu"

%struct.H5D_chk_idx_info_t = type { ptr, ptr, ptr, ptr }
%struct.H5O_storage_chunk_t = type { i32, i64, ptr, %union.anon.4 }
%union.anon.4 = type { %struct.H5O_storage_chunk_btree_t }
%struct.H5O_storage_chunk_btree_t = type { i64, ptr }
%struct.H5O_storage_chunk_farray_t = type { i64, ptr }
%struct.H5D_farray_ctx_ud_t = type { ptr, i32 }
%struct.H5O_layout_chunk_t = type { i32, i8, i32, [33 x i32], i32, i32, i64, i64, [33 x i64], [33 x i64], [33 x i64], [33 x i64], %union.anon.0 }
%union.anon.0 = type { %struct.H5O_layout_chunk_earray_t }
%struct.H5O_layout_chunk_earray_t = type { %struct.anon.1, i32, [33 x i32], [33 x i64], [33 x i64] }
%struct.anon.1 = type { i8, i8, i8, i8, i8 }

@.str.2 = private unnamed_addr constant [103 x i8] c"generated/home/dtcxzyw/WorkSpace/Projects/compilers/llvm-opt-benchmark/bench/hdf5/hdf5/src/H5Dfarray.c\00", align 1
@H5E_DATASET_g = external global i64, align 8
@H5E_CANTCLOSEOBJ_g = external global i64, align 8
@__func__.H5D__farray_idx_close = private unnamed_addr constant [22 x i8] c"H5D__farray_idx_close\00", align 1
@.str.21 = private unnamed_addr constant [28 x i8] c"unable to close fixed array\00", align 1
@H5E_BADITER_g = external global i64, align 8
@__func__.H5D__farray_idx_delete = private unnamed_addr constant [23 x i8] c"H5D__farray_idx_delete\00", align 1
@.str.36 = private unnamed_addr constant [39 x i8] c"unable to iterate over chunk addresses\00", align 1
@H5E_CANTDELETE_g = external global i64, align 8
@.str.37 = private unnamed_addr constant [35 x i8] c"unable to delete chunk fixed array\00", align 1

; Function Attrs: nounwind uwtable
define internal i32 @H5D__farray_idx_close(ptr noundef %0) #0 {
  %2 = alloca ptr, align 8
  %3 = alloca i32, align 4
  %4 = alloca i8, align 1
  store ptr %0, ptr %2, align 8
  store i32 0, ptr %3, align 4
  store i8 0, ptr %4, align 1
  %5 = load ptr, ptr %2, align 8
  %6 = getelementptr inbounds %struct.H5D_chk_idx_info_t, ptr %5, i32 0, i32 3
  %7 = load ptr, ptr %6, align 8
  %8 = getelementptr inbounds %struct.H5O_storage_chunk_t, ptr %7, i32 0, i32 3
  %9 = getelementptr inbounds %struct.H5O_storage_chunk_farray_t, ptr %8, i32 0, i32 1
  %10 = load ptr, ptr %9, align 8
  %11 = call i32 @H5FA_close(ptr noundef %10)
  %12 = icmp slt i32 %11, 0
  br i1 %12, label %13, label %28

13:                                               ; preds = %1
  br label %14

14:                                               ; preds = %13
  br label %15

15:                                               ; preds = %14
  br label %16

16:                                               ; preds = %15
  %17 = load i64, ptr @H5E_DATASET_g, align 8
  %18 = load i64, ptr @H5E_CANTCLOSEOBJ_g, align 8
  %19 = call i32 (ptr, ptr, i32, i64, i64, ptr, ...) @H5E_printf_stack(ptr noundef @.str.2, ptr noundef @__func__.H5D__farray_idx_close, i32 noundef 888, i64 noundef %17, i64 noundef %18, ptr noundef @.str.21)
  br label %20

20:                                               ; preds = %16
  store i8 1, ptr %4, align 1
  %21 = load i8, ptr %4, align 1
  %22 = trunc i8 %21 to i1
  %23 = zext i1 %22 to i8
  store i8 %23, ptr %4, align 1
  br label %24

24:                                               ; preds = %20
  br label %25

25:                                               ; preds = %24
  store i32 -1, ptr %3, align 4
  br label %34

26:                                               ; No predecessors!
  br label %27

27:                                               ; preds = %26
  br label %28

28:                                               ; preds = %27, %1
  %29 = load ptr, ptr %2, align 8
  %30 = getelementptr inbounds %struct.H5D_chk_idx_info_t, ptr %29, i32 0, i32 3
  %31 = load ptr, ptr %30, align 8
  %32 = getelementptr inbounds %struct.H5O_storage_chunk_t, ptr %31, i32 0, i32 3
  %33 = getelementptr inbounds %struct.H5O_storage_chunk_farray_t, ptr %32, i32 0, i32 1
  store ptr null, ptr %33, align 8
  br label %34

34:                                               ; preds = %28, %25
  %35 = load i32, ptr %3, align 4
  ret i32 %35
}

; Function Attrs: nounwind uwtable
define internal i32 @H5D__farray_idx_delete(ptr noundef %0) #0 {
  %2 = alloca ptr, align 8
  %3 = alloca i32, align 4
  %4 = alloca i8, align 1
  %5 = alloca %struct.H5D_farray_ctx_ud_t, align 8
  store ptr %0, ptr %2, align 8
  store i32 0, ptr %3, align 4
  store i8 0, ptr %4, align 1
  %6 = load ptr, ptr %2, align 8
  %7 = getelementptr inbounds %struct.H5D_chk_idx_info_t, ptr %6, i32 0, i32 3
  %8 = load ptr, ptr %7, align 8
  %9 = getelementptr inbounds %struct.H5O_storage_chunk_t, ptr %8, i32 0, i32 1
  %10 = load i64, ptr %9, align 8
  %11 = icmp ne i64 %10, -1
  br i1 %11, label %12, label %94

12:                                               ; preds = %1
  %13 = load ptr, ptr %2, align 8
  %14 = load ptr, ptr %2, align 8
  %15 = getelementptr inbounds %struct.H5D_chk_idx_info_t, ptr %14, i32 0, i32 0
  %16 = load ptr, ptr %15, align 8
  %17 = call i32 @H5D__farray_idx_iterate(ptr noundef %13, ptr noundef @H5D__farray_idx_delete_cb, ptr noundef %16)
  %18 = icmp slt i32 %17, 0
  br i1 %18, label %19, label %34

19:                                               ; preds = %12
  br label %20

20:                                               ; preds = %19
  br label %21

21:                                               ; preds = %20
  br label %22

22:                                               ; preds = %21
  %23 = load i64, ptr @H5E_DATASET_g, align 8
  %24 = load i64, ptr @H5E_BADITER_g, align 8
  %25 = call i32 (ptr, ptr, i32, i64, i64, ptr, ...) @H5E_printf_stack(ptr noundef @.str.2, ptr noundef @__func__.H5D__farray_idx_delete, i32 noundef 1409, i64 noundef %23, i64 noundef %24, ptr noundef @.str.36)
  br label %26

26:                                               ; preds = %22
  store i8 1, ptr %4, align 1
  %27 = load i8, ptr %4, align 1
  %28 = trunc i8 %27 to i1
  %29 = zext i1 %28 to i8
  store i8 %29, ptr %4, align 1
  br label %30

30:                                               ; preds = %26
  br label %31

31:                                               ; preds = %30
  store i32 -1, ptr %3, align 4
  br label %96

32:                                               ; No predecessors!
  br label %33

33:                                               ; preds = %32
  br label %34

34:                                               ; preds = %33, %12
  %35 = load ptr, ptr %2, align 8
  %36 = call i32 @H5D__farray_idx_close(ptr noundef %35)
  %37 = icmp slt i32 %36, 0
  br i1 %37, label %38, label %53

38:                                               ; preds = %34
  br label %39

39:                                               ; preds = %38
  br label %40

40:                                               ; preds = %39
  br label %41

41:                                               ; preds = %40
  %42 = load i64, ptr @H5E_DATASET_g, align 8
  %43 = load i64, ptr @H5E_CANTCLOSEOBJ_g, align 8
  %44 = call i32 (ptr, ptr, i32, i64, i64, ptr, ...) @H5E_printf_stack(ptr noundef @.str.2, ptr noundef @__func__.H5D__farray_idx_delete, i32 noundef 1413, i64 noundef %42, i64 noundef %43, ptr noundef @.str.21)
  br label %45

45:                                               ; preds = %41
  store i8 1, ptr %4, align 1
  %46 = load i8, ptr %4, align 1
  %47 = trunc i8 %46 to i1
  %48 = zext i1 %47 to i8
  store i8 %48, ptr %4, align 1
  br label %49

49:                                               ; preds = %45
  br label %50

50:                                               ; preds = %49
  store i32 -1, ptr %3, align 4
  br label %96

51:                                               ; No predecessors!
  br label %52

52:                                               ; preds = %51
  br label %53

53:                                               ; preds = %52, %34
  %54 = load ptr, ptr %2, align 8
  %55 = getelementptr inbounds %struct.H5D_chk_idx_info_t, ptr %54, i32 0, i32 0
  %56 = load ptr, ptr %55, align 8
  %57 = getelementptr inbounds %struct.H5D_farray_ctx_ud_t, ptr %5, i32 0, i32 0
  store ptr %56, ptr %57, align 8
  %58 = load ptr, ptr %2, align 8
  %59 = getelementptr inbounds %struct.H5D_chk_idx_info_t, ptr %58, i32 0, i32 2
  %60 = load ptr, ptr %59, align 8
  %61 = getelementptr inbounds %struct.H5O_layout_chunk_t, ptr %60, i32 0, i32 5
  %62 = load i32, ptr %61, align 4
  %63 = getelementptr inbounds %struct.H5D_farray_ctx_ud_t, ptr %5, i32 0, i32 1
  store i32 %62, ptr %63, align 8
  %64 = load ptr, ptr %2, align 8
  %65 = getelementptr inbounds %struct.H5D_chk_idx_info_t, ptr %64, i32 0, i32 0
  %66 = load ptr, ptr %65, align 8
  %67 = load ptr, ptr %2, align 8
  %68 = getelementptr inbounds %struct.H5D_chk_idx_info_t, ptr %67, i32 0, i32 3
  %69 = load ptr, ptr %68, align 8
  %70 = getelementptr inbounds %struct.H5O_storage_chunk_t, ptr %69, i32 0, i32 1
  %71 = load i64, ptr %70, align 8
  %72 = call i32 @H5FA_delete(ptr noundef %66, i64 noundef %71, ptr noundef %5)
  %73 = icmp slt i32 %72, 0
  br i1 %73, label %74, label %89

74:                                               ; preds = %53
  br label %75

75:                                               ; preds = %74
  br label %76

76:                                               ; preds = %75
  br label %77

77:                                               ; preds = %76
  %78 = load i64, ptr @H5E_DATASET_g, align 8
  %79 = load i64, ptr @H5E_CANTDELETE_g, align 8
  %80 = call i32 (ptr, ptr, i32, i64, i64, ptr, ...) @H5E_printf_stack(ptr noundef @.str.2, ptr noundef @__func__.H5D__farray_idx_delete, i32 noundef 1421, i64 noundef %78, i64 noundef %79, ptr noundef @.str.37)
  br label %81

81:                                               ; preds = %77
  store i8 1, ptr %4, align 1
  %82 = load i8, ptr %4, align 1
  %83 = trunc i8 %82 to i1
  %84 = zext i1 %83 to i8
  store i8 %84, ptr %4, align 1
  br label %85

85:                                               ; preds = %81
  br label %86

86:                                               ; preds = %85
  store i32 -1, ptr %3, align 4
  br label %96

87:                                               ; No predecessors!
  br label %88

88:                                               ; preds = %87
  br label %89

89:                                               ; preds = %88, %53
  %90 = load ptr, ptr %2, align 8
  %91 = getelementptr inbounds %struct.H5D_chk_idx_info_t, ptr %90, i32 0, i32 3
  %92 = load ptr, ptr %91, align 8
  %93 = getelementptr inbounds %struct.H5O_storage_chunk_t, ptr %92, i32 0, i32 1
  store i64 -1, ptr %93, align 8
  br label %95

94:                                               ; preds = %1
  br label %95

95:                                               ; preds = %94, %89
  br label %96

96:                                               ; preds = %95, %86, %50, %31
  %97 = load i32, ptr %3, align 4
  ret i32 %97
}