; Function Attrs: nounwind uwtable
define internal range(i32 -1, 1) i32 @H5D__farray_idx_delete(ptr nocapture noundef readonly %0) #1 {
  %2 = alloca %struct.H5D_farray_ctx_ud_t, align 8
  %3 = getelementptr inbounds i8, ptr %0, i64 24
  %4 = load ptr, ptr %3, align 8
  %5 = getelementptr inbounds i8, ptr %4, i64 8
  %6 = load i64, ptr %5, align 8
  %.not = icmp eq i64 %6, -1
  br i1 %.not, label %49, label %7

7:                                                ; preds = %1
  %8 = load ptr, ptr %0, align 8
  %9 = tail call i32 @H5D__farray_idx_iterate(ptr noundef nonnull %0, ptr noundef nonnull @H5D__farray_idx_delete_cb, ptr noundef %8)
  %10 = icmp slt i32 %9, 0
  br i1 %10, label %11, label %15

11:                                               ; preds = %7
  %12 = load i64, ptr @H5E_DATASET_g, align 8
  %13 = load i64, ptr @H5E_BADITER_g, align 8
  %14 = tail call i32 (ptr, ptr, i32, i64, i64, ptr, ...) @H5E_printf_stack(ptr noundef nonnull @.str.2, ptr noundef nonnull @__func__.H5D__farray_idx_delete, i32 noundef 1409, i64 noundef %12, i64 noundef %13, ptr noundef nonnull @.str.36) #11
  br label %49

15:                                               ; preds = %7
  %16 = load ptr, ptr %3, align 8
  %17 = getelementptr inbounds i8, ptr %16, i64 32
  %18 = load ptr, ptr %17, align 8
  %19 = tail call i32 @H5FA_close(ptr noundef %18) #11
  %20 = icmp slt i32 %19, 0
  br i1 %20, label %21, label %28

21:                                               ; preds = %15
  %22 = load i64, ptr @H5E_DATASET_g, align 8
  %23 = load i64, ptr @H5E_CANTCLOSEOBJ_g, align 8
  %24 = tail call i32 (ptr, ptr, i32, i64, i64, ptr, ...) @H5E_printf_stack(ptr noundef nonnull @.str.2, ptr noundef nonnull @__func__.H5D__farray_idx_close, i32 noundef 888, i64 noundef %22, i64 noundef %23, ptr noundef nonnull @.str.21) #11
  %25 = load i64, ptr @H5E_DATASET_g, align 8
  %26 = load i64, ptr @H5E_CANTCLOSEOBJ_g, align 8
  %27 = tail call i32 (ptr, ptr, i32, i64, i64, ptr, ...) @H5E_printf_stack(ptr noundef nonnull @.str.2, ptr noundef nonnull @__func__.H5D__farray_idx_delete, i32 noundef 1413, i64 noundef %25, i64 noundef %26, ptr noundef nonnull @.str.21) #11
  br label %49

28:                                               ; preds = %15
  %29 = load ptr, ptr %3, align 8
  %30 = getelementptr inbounds i8, ptr %29, i64 32
  store ptr null, ptr %30, align 8
  %31 = load ptr, ptr %0, align 8
  store ptr %31, ptr %2, align 8
  %32 = getelementptr inbounds i8, ptr %0, i64 16
  %33 = load ptr, ptr %32, align 8
  %34 = getelementptr inbounds i8, ptr %33, i64 148
  %35 = load i32, ptr %34, align 4
  %36 = getelementptr inbounds i8, ptr %2, i64 8
  store i32 %35, ptr %36, align 8
  %37 = load ptr, ptr %3, align 8
  %38 = getelementptr inbounds i8, ptr %37, i64 8
  %39 = load i64, ptr %38, align 8
  %40 = call i32 @H5FA_delete(ptr noundef %31, i64 noundef %39, ptr noundef nonnull %2) #11
  %41 = icmp slt i32 %40, 0
  br i1 %41, label %42, label %46

42:                                               ; preds = %28
  %43 = load i64, ptr @H5E_DATASET_g, align 8
  %44 = load i64, ptr @H5E_CANTDELETE_g, align 8
  %45 = call i32 (ptr, ptr, i32, i64, i64, ptr, ...) @H5E_printf_stack(ptr noundef nonnull @.str.2, ptr noundef nonnull @__func__.H5D__farray_idx_delete, i32 noundef 1421, i64 noundef %43, i64 noundef %44, ptr noundef nonnull @.str.37) #11
  br label %49

46:                                               ; preds = %28
  %47 = load ptr, ptr %3, align 8
  %48 = getelementptr inbounds i8, ptr %47, i64 8
  store i64 -1, ptr %48, align 8
  br label %49

49:                                               ; preds = %46, %1, %42, %21, %11
  %.0 = phi i32 [ -1, %11 ], [ -1, %21 ], [ -1, %42 ], [ 0, %46 ], [ 0, %1 ]
  ret i32 %.0
}